; Function Attrs: nofree nosync nounwind memory(readwrite, inaccessiblemem: none) uwtable
define i32 @Abc_NodeRef_rec(ptr noundef readonly captures(none) %0) local_unnamed_addr #1 {
  %2 = getelementptr i8, ptr %0, i64 20
  %.val12 = load i32, ptr %2, align 4
  %3 = and i32 %.val12, 15
  switch i32 %3, label %.preheader [
    i32 5, label %.critedge
    i32 2, label %.critedge
  ]

.preheader:                                       ; preds = %1
  %4 = getelementptr i8, ptr %0, i64 28
  %.val17 = load i32, ptr %4, align 4
  %5 = icmp sgt i32 %.val17, 0
  br i1 %5, label %.lr.ph, label %.critedge

.lr.ph:                                           ; preds = %.preheader
  %6 = getelementptr i8, ptr %0, i64 32
  br label %7

7:                                                ; preds = %.lr.ph, %22
  %indvars.iv = phi i64 [ 0, %.lr.ph ], [ %indvars.iv.next, %22 ]
  %.019 = phi i32 [ 1, %.lr.ph ], [ %.1, %22 ]
  %.val13 = load ptr, ptr %0, align 8
  %.val14 = load ptr, ptr %6, align 8
  %8 = getelementptr i8, ptr %.val13, i64 32
  %.val13.val = load ptr, ptr %8, align 8
  %9 = getelementptr i8, ptr %.val13.val, i64 8
  %.val13.val.val = load ptr, ptr %9, align 8
  %10 = getelementptr inbounds nuw i32, ptr %.val14, i64 %indvars.iv
  %11 = load i32, ptr %10, align 4
  %12 = sext i32 %11 to i64
  %13 = getelementptr inbounds ptr, ptr %.val13.val.val, i64 %12
  %14 = load ptr, ptr %13, align 8
  %15 = getelementptr inbounds nuw i8, ptr %14, i64 44
  %16 = load i32, ptr %15, align 4
  %17 = add nsw i32 %16, 1
  store i32 %17, ptr %15, align 4
  %18 = icmp eq i32 %16, 0
  br i1 %18, label %19, label %22

19:                                               ; preds = %7
  %20 = tail call i32 @Abc_NodeRef_rec(ptr noundef nonnull %14)
  %21 = add nsw i32 %20, %.019
  br label %22

22:                                               ; preds = %7, %19
  %.1 = phi i32 [ %21, %19 ], [ %.019, %7 ]
  %indvars.iv.next = add nuw nsw i64 %indvars.iv, 1
  %.val = load i32, ptr %4, align 4
  %23 = sext i32 %.val to i64
  %24 = icmp slt i64 %indvars.iv.next, %23
  br i1 %24, label %7, label %.critedge, !llvm.loop !6

.critedge:                                        ; preds = %22, %.preheader, %1, %1
  %.011 = phi i32 [ 0, %1 ], [ 0, %1 ], [ 1, %.preheader ], [ %.1, %22 ]
  ret i32 %.011
}